Archive member included to satisfy reference by file (symbol)

../../lib/include/libstm32f103c8t6.a(flash.o)
                              main.o (FLASH_ACR)
../../lib/include/libstm32f103c8t6.a(rcc.o)
                              main.o (RCC_CR)

Memory Configuration

Name             Origin             Length             Attributes
FLASH            0x0000000008000000 0x0000000000020000 xr
SRAM             0x0000000020000000 0x0000000000005000 xrw
*default*        0x0000000000000000 0xffffffffffffffff

Linker script and memory map

LOAD stm32_startup.o
LOAD main.o
LOAD jlx12864g.o
LOAD ../../lib/include/libstm32f103c8t6.a

.text           0x0000000008000000      0x628
 *(.vector_table)
 .vector_table  0x0000000008000000       0xec stm32_startup.o
                0x0000000008000000                vectors
 *(.text)
 .text          0x00000000080000ec       0x8c stm32_startup.o
                0x00000000080000ec                Reset_Handler
                0x0000000008000170                FLASH_Handler
                0x0000000008000170                SVCall_Handler
                0x0000000008000170                HardFault_Handler
                0x0000000008000170                SysTick_Handler
                0x0000000008000170                USART3_Handler
                0x0000000008000170                PendSV_Handler
                0x0000000008000170                NMI_Handler
                0x0000000008000170                DMA_Channel5_Handler
                0x0000000008000170                CAN1_RX1_Handler
                0x0000000008000170                DMA_Channel6_Handler
                0x0000000008000170                EXTI15_10_Handler
                0x0000000008000170                DMA_Channel7_Handler
                0x0000000008000170                I2C1_EV_Handler
                0x0000000008000170                ADC1_2_Handler
                0x0000000008000170                WWDG_Handler
                0x0000000008000170                EXTI4_Handler
                0x0000000008000170                I2C1_ER_Handler
                0x0000000008000170                RTC_Handler
                0x0000000008000170                UsageFault_Handler
                0x0000000008000170                CAN1_RX0_Handler
                0x0000000008000170                TIM1_CC_Handler
                0x0000000008000170                I2C2_ER_Handler
                0x0000000008000170                DMA_Channel3_Handler
                0x0000000008000170                CAN1_SCE_Handler
                0x0000000008000170                TIM1_BRK_Handler
                0x0000000008000170                EXTI1_Handler
                0x0000000008000170                EXTI3_Handler
                0x0000000008000170                EXTI2_Handler
                0x0000000008000170                EXTI9_5_Handler
                0x0000000008000170                TIM2_Handler
                0x0000000008000170                USART1_Handler
                0x0000000008000170                TIM3_Handler
                0x0000000008000170                Default_Handler
                0x0000000008000170                DMA_Channel1_Handler
                0x0000000008000170                DMA_Channel2_Handler
                0x0000000008000170                TIM4_Handler
                0x0000000008000170                SPI2_Handler
                0x0000000008000170                MemManage_Handler
                0x0000000008000170                EXTI0_Handler
                0x0000000008000170                TIM1_UP_Handler
                0x0000000008000170                USART2_Handler
                0x0000000008000170                SPI1_Handler
                0x0000000008000170                DMA_Channel4_Handler
                0x0000000008000170                I2C2_EV_Handler
                0x0000000008000170                Debug_Monitor_Handler
                0x0000000008000170                RCC_Handler
                0x0000000008000170                PVD_Handler
                0x0000000008000170                CAN1_TX_Handler
                0x0000000008000170                BusFault_Handler
                0x0000000008000170                RTCAlarm_Handler
                0x0000000008000170                TIM1_TRG_COM_Handler
                0x0000000008000170                OTG_FS_WKUP_Handler
                0x0000000008000170                TAMPER_Handler
 .text          0x0000000008000178       0x8e main.o
                0x0000000008000178                main
                0x0000000008000182                initialize
                0x000000000800018e                configureSystemClock
 .text          0x0000000008000206        0xc jlx12864g.o
                0x0000000008000206                lcdInit
 *fill*         0x0000000008000212        0x2 
 .text          0x0000000008000214       0x8c ../../lib/include/libstm32f103c8t6.a(flash.o)
                0x0000000008000214                getPRFTBS
                0x0000000008000238                setPRFTB
                0x0000000008000278                setWaitStates
 .text          0x00000000080002a0      0x388 ../../lib/include/libstm32f103c8t6.a(rcc.o)
                0x00000000080002a0                enablePeripheralClock
                0x000000000800030c                isHSIRDY
                0x0000000008000330                enableHSE
                0x0000000008000350                disableHSE
                0x0000000008000370                enableHSI
                0x0000000008000390                disableHSI
                0x00000000080003b0                isHSERDY
                0x00000000080003d4                enableCSS
                0x00000000080003f4                disableCSS
                0x0000000008000414                enablePLL
                0x0000000008000434                disablePLL
                0x0000000008000454                isPLLRDY
                0x0000000008000478                setSW
                0x00000000080004a0                getSWS
                0x00000000080004c8                setAHB_PSC
                0x00000000080004f0                setAPB1_PSC
                0x0000000008000518                setPLLPSC
                0x0000000008000538                clearPLLSRC
                0x0000000008000558                setAPB2_PSC
                0x0000000008000580                setPLLXTPRE
                0x00000000080005a0                clearPLLXTPRE
                0x00000000080005c0                setPLLMULL
                0x00000000080005e8                setUSBPRE
 *(.rodata)
                0x0000000008000628                . = ALIGN (0x4)
                0x0000000008000628                _end_of_text = .

.glue_7         0x0000000008000628        0x0
 .glue_7        0x0000000008000628        0x0 linker stubs

.glue_7t        0x0000000008000628        0x0
 .glue_7t       0x0000000008000628        0x0 linker stubs

.vfp11_veneer   0x0000000008000628        0x0
 .vfp11_veneer  0x0000000008000628        0x0 linker stubs

.v4_bx          0x0000000008000628        0x0
 .v4_bx         0x0000000008000628        0x0 linker stubs

.iplt           0x0000000008000628        0x0
 .iplt          0x0000000008000628        0x0 stm32_startup.o

.rel.dyn        0x0000000008000628        0x0
 .rel.iplt      0x0000000008000628        0x0 stm32_startup.o

.stack          0x0000000020000000      0x400
                0x0000000020000400                . = (. + 0x400)
 *fill*         0x0000000020000000      0x400 
                0x0000000020000400                _STACK_END = .
                0x0000000008000628                _DataLoad = LOADADDR (.data)

.data           0x0000000020000400       0x14 load address 0x0000000008000628
                0x0000000020000400                _start_of_data = .
 *(.data)
 .data          0x0000000020000400        0x0 stm32_startup.o
 .data          0x0000000020000400        0x0 main.o
 .data          0x0000000020000400        0x0 jlx12864g.o
 .data          0x0000000020000400        0x4 ../../lib/include/libstm32f103c8t6.a(flash.o)
                0x0000000020000400                FLASH_ACR
 .data          0x0000000020000404       0x10 ../../lib/include/libstm32f103c8t6.a(rcc.o)
                0x0000000020000404                RCC_CR
                0x0000000020000408                RCC_CFGR
                0x000000002000040c                RCC_APB2ENR
                0x0000000020000410                RCC_APB1ENR
                0x0000000020000414                . = ALIGN (0x4)
                0x0000000020000414                _end_of_data = .

.igot.plt       0x0000000020000414        0x0 load address 0x000000000800063c
 .igot.plt      0x0000000020000414        0x0 stm32_startup.o

.bss            0x0000000020000414        0x0 load address 0x000000000800063c
                0x0000000020000414                _start_of_bss = .
 *(.bss)
 .bss           0x0000000020000414        0x0 stm32_startup.o
 .bss           0x0000000020000414        0x0 main.o
 .bss           0x0000000020000414        0x0 jlx12864g.o
 .bss           0x0000000020000414        0x0 ../../lib/include/libstm32f103c8t6.a(flash.o)
 .bss           0x0000000020000414        0x0 ../../lib/include/libstm32f103c8t6.a(rcc.o)
 *(.COMMON)
                0x0000000020000414                . = ALIGN (0x4)
                0x0000000020000414                _end_of_bss = .
 COMMON         0x0000000020000414        0x0 main.o
OUTPUT(final.elf elf32-littlearm)
LOAD linker stubs

.comment        0x0000000000000000       0x59
 .comment       0x0000000000000000       0x59 stm32_startup.o
                                         0x5a (size before relaxing)
 .comment       0x0000000000000059       0x5a main.o
 .comment       0x0000000000000059       0x5a jlx12864g.o
 .comment       0x0000000000000059       0x5a ../../lib/include/libstm32f103c8t6.a(flash.o)
 .comment       0x0000000000000059       0x5a ../../lib/include/libstm32f103c8t6.a(rcc.o)

.ARM.attributes
                0x0000000000000000       0x2d
 .ARM.attributes
                0x0000000000000000       0x2d stm32_startup.o
 .ARM.attributes
                0x000000000000002d       0x2d main.o
 .ARM.attributes
                0x000000000000005a       0x2d jlx12864g.o
 .ARM.attributes
                0x0000000000000087       0x2d ../../lib/include/libstm32f103c8t6.a(flash.o)
 .ARM.attributes
                0x00000000000000b4       0x2d ../../lib/include/libstm32f103c8t6.a(rcc.o)
